target datalayout = "e-m:e-p270:32:32-p271:32:32-p272:64:64-i64:64-i128:128-f80:128-n8:16:32:64-S128"
target triple = "x86_64-pc-linux-gnu"

%struct._zend_executor_globals = type { %struct._zval_struct, %struct._zval_struct, [32 x ptr], ptr, ptr, %struct._zend_array, %struct._zend_array, ptr, i32, i32, ptr, ptr, ptr, ptr, ptr, ptr, i64, ptr, ptr, i32, i32, i64, i32, i32, i32, i8, i8, %struct.zend_atomic_bool_s, %struct.zend_atomic_bool_s, ptr, i64, ptr, ptr, %struct._zend_array, %struct._zend_array, i32, i8, %struct._zval_struct, %struct._zval_struct, %struct._zend_stack, %struct._zend_stack, %struct._zend_stack, ptr, i32, i32, i64, ptr, ptr, ptr, %struct._zend_objects_store, ptr, ptr, ptr, [3 x %struct._zend_op], ptr, i8, i8, i64, i32, i32, ptr, [16 x %struct._HashTableIterator], ptr, %union._zend_function, %struct._zend_op, %struct._zend_array, i64, %struct.zend_get_gc_buffer, ptr, ptr, ptr, i64, i8, i32, ptr, ptr, i64, %struct._zend_call_stack, i64, i64, [6 x ptr] }
%struct.zend_atomic_bool_s = type { i8 }
%struct._zval_struct = type { %union._zend_value, %union.anon, %union.anon.2 }
%union._zend_value = type { i64 }
%union.anon = type { i32 }
%union.anon.2 = type { i32 }
%struct._zend_stack = type { i32, i32, i32, ptr }
%struct._zend_objects_store = type { ptr, i32, i32, i32 }
%struct._HashTableIterator = type { ptr, i32, i32 }
%union._zend_function = type { %struct._zend_op_array }
%struct._zend_op_array = type { i8, [3 x i8], i32, ptr, ptr, ptr, i32, i32, ptr, ptr, ptr, ptr, i32, i32, i32, i32, ptr, ptr, ptr, ptr, ptr, i32, i32, ptr, ptr, ptr, i32, i32, i32, i32, ptr, ptr, [6 x ptr] }
%struct._zend_op = type { ptr, %union._znode_op, %union._znode_op, %union._znode_op, i32, i32, i8, i8, i8, i8 }
%union._znode_op = type { i32 }
%struct._zend_array = type { %struct._zend_refcounted_h, %union.anon.4, i32, %union.anon.6, i32, i32, i32, i32, i64, ptr }
%struct._zend_refcounted_h = type { i32, %union.anon.3 }
%union.anon.3 = type { i32 }
%union.anon.4 = type { i32 }
%union.anon.6 = type { ptr }
%struct.zend_get_gc_buffer = type { ptr, ptr, ptr }
%struct._zend_call_stack = type { ptr, i64 }
%struct._zend_execute_data = type { ptr, ptr, ptr, ptr, %struct._zval_struct, ptr, ptr, ptr, ptr }
%struct._zend_object = type { %struct._zend_refcounted_h, i32, ptr, ptr, ptr, [1 x %struct._zval_struct] }
%struct._spl_recursive_it_object = type { ptr, i32, i32, i32, i32, i8, ptr, ptr, ptr, ptr, ptr, ptr, ptr, ptr, [6 x ptr], [1 x ptr], %struct._zend_object }
%struct._spl_sub_iterator = type { ptr, %struct._zval_struct, ptr, i32, ptr, ptr }

@executor_globals = external global %struct._zend_executor_globals, align 8
@.str = private unnamed_addr constant [75 x i8] c"The object is in an invalid state as the parent constructor was not called\00", align 1
@.str.3 = private unnamed_addr constant [12 x i8] c"getchildren\00", align 1

; Function Attrs: nounwind uwtable
define internal ptr @spl_recursive_it_from_obj(ptr noundef %0) #0 {
  %2 = alloca ptr, align 8
  store ptr %0, ptr %2, align 8
  %3 = load ptr, ptr %2, align 8
  %4 = getelementptr inbounds i8, ptr %3, i64 -152
  ret ptr %4
}

; Function Attrs: nounwind uwtable
define hidden void @zim_RecursiveIteratorIterator_callGetChildren(ptr noundef %0, ptr noundef %1) #0 {
  %3 = alloca ptr, align 8
  %4 = alloca ptr, align 8
  %5 = alloca ptr, align 8
  %6 = alloca ptr, align 8
  %7 = alloca ptr, align 8
  %8 = alloca ptr, align 8
  %9 = alloca ptr, align 8
  %10 = alloca ptr, align 8
  %11 = alloca ptr, align 8
  %12 = alloca ptr, align 8
  %13 = alloca ptr, align 8
  %14 = alloca ptr, align 8
  store ptr %0, ptr %10, align 8
  store ptr %1, ptr %11, align 8
  %15 = load ptr, ptr %10, align 8
  %16 = getelementptr inbounds %struct._zend_execute_data, ptr %15, i32 0, i32 4
  %17 = getelementptr inbounds %struct._zval_struct, ptr %16, i32 0, i32 0
  %18 = load ptr, ptr %17, align 8
  %19 = call ptr @spl_recursive_it_from_obj(ptr noundef %18)
  store ptr %19, ptr %12, align 8
  %20 = load ptr, ptr %10, align 8
  %21 = getelementptr inbounds %struct._zend_execute_data, ptr %20, i32 0, i32 4
  %22 = getelementptr inbounds %struct._zval_struct, ptr %21, i32 0, i32 2
  %23 = load i32, ptr %22, align 4
  %24 = icmp eq i32 %23, 0
  %25 = xor i1 %24, true
  %26 = xor i1 %25, true
  %27 = zext i1 %26 to i32
  %28 = sext i32 %27 to i64
  %29 = icmp ne i64 %28, 0
  br i1 %29, label %30, label %31

30:                                               ; preds = %2
  br label %32

31:                                               ; preds = %2
  call void @zend_wrong_parameters_none_error()
  br label %32

32:                                               ; preds = %31, %30
  %33 = phi i32 [ 0, %30 ], [ -1, %31 ]
  %34 = icmp eq i32 %33, -1
  br i1 %34, label %35, label %40

35:                                               ; preds = %32
  br label %36

36:                                               ; preds = %35
  %37 = load ptr, ptr getelementptr inbounds (%struct._zend_executor_globals, ptr @executor_globals, i32 0, i32 50), align 8
  %38 = icmp ne ptr %37, null
  call void @llvm.assume(i1 %38)
  br label %118

39:                                               ; No predecessors!
  br label %40

40:                                               ; preds = %39, %32
  br label %41

41:                                               ; preds = %40
  %42 = load ptr, ptr %12, align 8
  %43 = getelementptr inbounds %struct._spl_recursive_it_object, ptr %42, i32 0, i32 0
  %44 = load ptr, ptr %43, align 8
  %45 = icmp ne ptr %44, null
  br i1 %45, label %47, label %46

46:                                               ; preds = %41
  call void (ptr, ptr, ...) @zend_throw_error(ptr noundef null, ptr noundef @.str)
  br label %118

47:                                               ; preds = %41
  %48 = load ptr, ptr %12, align 8
  %49 = getelementptr inbounds %struct._spl_recursive_it_object, ptr %48, i32 0, i32 0
  %50 = load ptr, ptr %49, align 8
  %51 = load ptr, ptr %12, align 8
  %52 = getelementptr inbounds %struct._spl_recursive_it_object, ptr %51, i32 0, i32 1
  %53 = load i32, ptr %52, align 8
  %54 = sext i32 %53 to i64
  %55 = getelementptr inbounds %struct._spl_sub_iterator, ptr %50, i64 %54
  %56 = getelementptr inbounds %struct._spl_sub_iterator, ptr %55, i32 0, i32 2
  %57 = load ptr, ptr %56, align 8
  store ptr %57, ptr %13, align 8
  br label %58

58:                                               ; preds = %47
  %59 = load ptr, ptr %12, align 8
  %60 = getelementptr inbounds %struct._spl_recursive_it_object, ptr %59, i32 0, i32 0
  %61 = load ptr, ptr %60, align 8
  %62 = load ptr, ptr %12, align 8
  %63 = getelementptr inbounds %struct._spl_recursive_it_object, ptr %62, i32 0, i32 1
  %64 = load i32, ptr %63, align 8
  %65 = sext i32 %64 to i64
  %66 = getelementptr inbounds %struct._spl_sub_iterator, ptr %61, i64 %65
  %67 = getelementptr inbounds %struct._spl_sub_iterator, ptr %66, i32 0, i32 1
  store ptr %67, ptr %14, align 8
  %68 = load ptr, ptr %14, align 8
  store ptr %68, ptr %8, align 8
  %69 = load ptr, ptr %8, align 8
  %70 = getelementptr inbounds %struct._zval_struct, ptr %69, i32 0, i32 1
  %71 = load i8, ptr %70, align 8
  %72 = zext i8 %71 to i32
  %73 = icmp eq i32 %72, 0
  br i1 %73, label %74, label %81

74:                                               ; preds = %58
  br label %75

75:                                               ; preds = %74
  br label %76

76:                                               ; preds = %75
  %77 = load ptr, ptr %11, align 8
  %78 = getelementptr inbounds %struct._zval_struct, ptr %77, i32 0, i32 1
  store i32 1, ptr %78, align 8
  br label %79

79:                                               ; preds = %76
  br label %118

80:                                               ; No predecessors!
  br label %118

81:                                               ; preds = %58
  %82 = load ptr, ptr %14, align 8
  %83 = getelementptr inbounds %struct._zval_struct, ptr %82, i32 0, i32 0
  %84 = load ptr, ptr %83, align 8
  %85 = load ptr, ptr %13, align 8
  %86 = load ptr, ptr %12, align 8
  %87 = getelementptr inbounds %struct._spl_recursive_it_object, ptr %86, i32 0, i32 0
  %88 = load ptr, ptr %87, align 8
  %89 = load ptr, ptr %12, align 8
  %90 = getelementptr inbounds %struct._spl_recursive_it_object, ptr %89, i32 0, i32 1
  %91 = load i32, ptr %90, align 8
  %92 = sext i32 %91 to i64
  %93 = getelementptr inbounds %struct._spl_sub_iterator, ptr %88, i64 %92
  %94 = getelementptr inbounds %struct._spl_sub_iterator, ptr %93, i32 0, i32 5
  %95 = load ptr, ptr %11, align 8
  store ptr %84, ptr %3, align 8
  store ptr %85, ptr %4, align 8
  store ptr %94, ptr %5, align 8
  store ptr @.str.3, ptr %6, align 8
  store ptr %95, ptr %7, align 8
  %96 = load ptr, ptr %3, align 8
  %97 = load ptr, ptr %4, align 8
  %98 = load ptr, ptr %5, align 8
  %99 = load ptr, ptr %6, align 8
  %100 = load ptr, ptr %6, align 8
  %101 = call i64 @strlen(ptr noundef %100) #11
  %102 = load ptr, ptr %7, align 8
  %103 = call ptr @zend_call_method(ptr noundef %96, ptr noundef %97, ptr noundef %98, ptr noundef %99, i64 noundef %101, ptr noundef %102, i32 noundef 0, ptr noundef null, ptr noundef null) #10
  %104 = load ptr, ptr %11, align 8
  store ptr %104, ptr %9, align 8
  %105 = load ptr, ptr %9, align 8
  %106 = getelementptr inbounds %struct._zval_struct, ptr %105, i32 0, i32 1
  %107 = load i8, ptr %106, align 8
  %108 = zext i8 %107 to i32
  %109 = icmp eq i32 %108, 0
  br i1 %109, label %110, label %117

110:                                              ; preds = %81
  br label %111

111:                                              ; preds = %110
  br label %112

112:                                              ; preds = %111
  %113 = load ptr, ptr %11, align 8
  %114 = getelementptr inbounds %struct._zval_struct, ptr %113, i32 0, i32 1
  store i32 1, ptr %114, align 8
  br label %115

115:                                              ; preds = %112
  br label %118

116:                                              ; No predecessors!
  br label %117

117:                                              ; preds = %116, %81
  br label %118

118:                                              ; preds = %117, %115, %80, %79, %46, %36
  ret void
}