; Function Attrs: nounwind uwtable
define hidden void @zim_RecursiveIteratorIterator_callGetChildren(ptr nocapture noundef readonly %0, ptr noundef %1) #0 {
  %3 = getelementptr inbounds i8, ptr %0, i64 32
  %4 = load ptr, ptr %3, align 8
  %5 = getelementptr inbounds i8, ptr %0, i64 44
  %6 = load i32, ptr %5, align 4
  %.not = icmp eq i32 %6, 0
  br i1 %.not, label %.critedge, label %7

7:                                                ; preds = %2
  tail call void @zend_wrong_parameters_none_error() #10
  %8 = load ptr, ptr getelementptr inbounds (%struct._zend_executor_globals, ptr @executor_globals, i64 0, i32 50), align 8
  %9 = icmp ne ptr %8, null
  tail call void @llvm.assume(i1 %9)
  br label %34

.critedge:                                        ; preds = %2
  %10 = getelementptr inbounds i8, ptr %4, i64 -152
  %11 = load ptr, ptr %10, align 8
  %.not24 = icmp eq ptr %11, null
  br i1 %.not24, label %12, label %13

12:                                               ; preds = %.critedge
  tail call void (ptr, ptr, ...) @zend_throw_error(ptr noundef null, ptr noundef nonnull @.str) #10
  br label %34

13:                                               ; preds = %.critedge
  %14 = getelementptr inbounds i8, ptr %4, i64 -144
  %15 = load i32, ptr %14, align 8
  %16 = sext i32 %15 to i64
  %17 = getelementptr inbounds %struct._spl_sub_iterator, ptr %11, i64 %16
  %18 = getelementptr inbounds i8, ptr %17, i64 16
  %19 = load i8, ptr %18, align 8
  %20 = icmp eq i8 %19, 0
  br i1 %20, label %21, label %23

21:                                               ; preds = %13
  %22 = getelementptr inbounds i8, ptr %1, i64 8
  store i32 1, ptr %22, align 8
  br label %34

23:                                               ; preds = %13
  %24 = getelementptr inbounds i8, ptr %17, i64 8
  %25 = getelementptr inbounds i8, ptr %17, i64 24
  %26 = load ptr, ptr %25, align 8
  %27 = load ptr, ptr %24, align 8
  %28 = getelementptr inbounds i8, ptr %17, i64 48
  %29 = tail call ptr @zend_call_method(ptr noundef %27, ptr noundef %26, ptr noundef nonnull %28, ptr noundef nonnull @.str.3, i64 noundef 11, ptr noundef %1, i32 noundef 0, ptr noundef null, ptr noundef null) #10
  %30 = getelementptr inbounds i8, ptr %1, i64 8
  %31 = load i8, ptr %30, align 8
  %32 = icmp eq i8 %31, 0
  br i1 %32, label %33, label %34

33:                                               ; preds = %23
  store i32 1, ptr %30, align 8
  br label %34

34:                                               ; preds = %23, %33, %21, %12, %7
  ret void
}